target datalayout = "e-m:e-p270:32:32-p271:32:32-p272:64:64-i64:64-i128:128-f80:128-n8:16:32:64-S128"
target triple = "x86_64-pc-linux-gnu"

; Function Attrs: alwaysinline nounwind uwtable
define internal <2 x i64> @_mm_set_epi32(i32 noundef %0, i32 noundef %1, i32 noundef %2, i32 noundef %3) #3 {
  %5 = alloca i32, align 4
  %6 = alloca i32, align 4
  %7 = alloca i32, align 4
  %8 = alloca i32, align 4
  %9 = alloca <4 x i32>, align 16
  store i32 %0, ptr %5, align 4, !tbaa !7
  store i32 %1, ptr %6, align 4, !tbaa !7
  store i32 %2, ptr %7, align 4, !tbaa !7
  store i32 %3, ptr %8, align 4, !tbaa !7
  %10 = load i32, ptr %8, align 4, !tbaa !7
  %11 = insertelement <4 x i32> poison, i32 %10, i32 0
  %12 = load i32, ptr %7, align 4, !tbaa !7
  %13 = insertelement <4 x i32> %11, i32 %12, i32 1
  %14 = load i32, ptr %6, align 4, !tbaa !7
  %15 = insertelement <4 x i32> %13, i32 %14, i32 2
  %16 = load i32, ptr %5, align 4, !tbaa !7
  %17 = insertelement <4 x i32> %15, i32 %16, i32 3
  store <4 x i32> %17, ptr %9, align 16, !tbaa !22
  %18 = load <4 x i32>, ptr %9, align 16, !tbaa !22
  %19 = bitcast <4 x i32> %18 to <2 x i64>
  ret <2 x i64> %19
}

; Function Attrs: nounwind uwtable
define hidden void @python_hashlib_Hacl_Hash_Blake2s_Simd128_load_state128s_from_state32(ptr noundef %0, ptr noundef %1) #0 {
  %3 = alloca ptr, align 8
  %4 = alloca ptr, align 8
  %5 = alloca ptr, align 8
  %6 = alloca ptr, align 8
  %7 = alloca ptr, align 8
  %8 = alloca ptr, align 8
  %9 = alloca ptr, align 8
  %10 = alloca ptr, align 8
  %11 = alloca ptr, align 8
  %12 = alloca ptr, align 8
  store ptr %0, ptr %3, align 8, !tbaa !3
  store ptr %1, ptr %4, align 8, !tbaa !23
  call void @llvm.lifetime.start.p0(i64 8, ptr %5) #14
  %13 = load ptr, ptr %3, align 8, !tbaa !3
  store ptr %13, ptr %5, align 8, !tbaa !3
  call void @llvm.lifetime.start.p0(i64 8, ptr %6) #14
  %14 = load ptr, ptr %3, align 8, !tbaa !3
  %15 = getelementptr <2 x i64>, ptr %14, i64 1
  store ptr %15, ptr %6, align 8, !tbaa !3
  call void @llvm.lifetime.start.p0(i64 8, ptr %7) #14
  %16 = load ptr, ptr %3, align 8, !tbaa !3
  %17 = getelementptr <2 x i64>, ptr %16, i64 2
  store ptr %17, ptr %7, align 8, !tbaa !3
  call void @llvm.lifetime.start.p0(i64 8, ptr %8) #14
  %18 = load ptr, ptr %3, align 8, !tbaa !3
  %19 = getelementptr <2 x i64>, ptr %18, i64 3
  store ptr %19, ptr %8, align 8, !tbaa !3
  call void @llvm.lifetime.start.p0(i64 8, ptr %9) #14
  %20 = load ptr, ptr %4, align 8, !tbaa !23
  store ptr %20, ptr %9, align 8, !tbaa !23
  call void @llvm.lifetime.start.p0(i64 8, ptr %10) #14
  %21 = load ptr, ptr %4, align 8, !tbaa !23
  %22 = getelementptr i32, ptr %21, i64 4
  store ptr %22, ptr %10, align 8, !tbaa !23
  call void @llvm.lifetime.start.p0(i64 8, ptr %11) #14
  %23 = load ptr, ptr %4, align 8, !tbaa !23
  %24 = getelementptr i32, ptr %23, i64 8
  store ptr %24, ptr %11, align 8, !tbaa !23
  call void @llvm.lifetime.start.p0(i64 8, ptr %12) #14
  %25 = load ptr, ptr %4, align 8, !tbaa !23
  %26 = getelementptr i32, ptr %25, i64 12
  store ptr %26, ptr %12, align 8, !tbaa !23
  %27 = load ptr, ptr %9, align 8, !tbaa !23
  %28 = getelementptr i32, ptr %27, i64 3
  %29 = load i32, ptr %28, align 4, !tbaa !7
  %30 = load ptr, ptr %9, align 8, !tbaa !23
  %31 = getelementptr i32, ptr %30, i64 2
  %32 = load i32, ptr %31, align 4, !tbaa !7
  %33 = load ptr, ptr %9, align 8, !tbaa !23
  %34 = getelementptr i32, ptr %33, i64 1
  %35 = load i32, ptr %34, align 4, !tbaa !7
  %36 = load ptr, ptr %9, align 8, !tbaa !23
  %37 = getelementptr i32, ptr %36, i64 0
  %38 = load i32, ptr %37, align 4, !tbaa !7
  %39 = call <2 x i64> @_mm_set_epi32(i32 noundef %29, i32 noundef %32, i32 noundef %35, i32 noundef %38)
  %40 = load ptr, ptr %5, align 8, !tbaa !3
  %41 = getelementptr <2 x i64>, ptr %40, i64 0
  store <2 x i64> %39, ptr %41, align 16, !tbaa !22
  %42 = load ptr, ptr %10, align 8, !tbaa !23
  %43 = getelementptr i32, ptr %42, i64 3
  %44 = load i32, ptr %43, align 4, !tbaa !7
  %45 = load ptr, ptr %10, align 8, !tbaa !23
  %46 = getelementptr i32, ptr %45, i64 2
  %47 = load i32, ptr %46, align 4, !tbaa !7
  %48 = load ptr, ptr %10, align 8, !tbaa !23
  %49 = getelementptr i32, ptr %48, i64 1
  %50 = load i32, ptr %49, align 4, !tbaa !7
  %51 = load ptr, ptr %10, align 8, !tbaa !23
  %52 = getelementptr i32, ptr %51, i64 0
  %53 = load i32, ptr %52, align 4, !tbaa !7
  %54 = call <2 x i64> @_mm_set_epi32(i32 noundef %44, i32 noundef %47, i32 noundef %50, i32 noundef %53)
  %55 = load ptr, ptr %6, align 8, !tbaa !3
  %56 = getelementptr <2 x i64>, ptr %55, i64 0
  store <2 x i64> %54, ptr %56, align 16, !tbaa !22
  %57 = load ptr, ptr %11, align 8, !tbaa !23
  %58 = getelementptr i32, ptr %57, i64 3
  %59 = load i32, ptr %58, align 4, !tbaa !7
  %60 = load ptr, ptr %11, align 8, !tbaa !23
  %61 = getelementptr i32, ptr %60, i64 2
  %62 = load i32, ptr %61, align 4, !tbaa !7
  %63 = load ptr, ptr %11, align 8, !tbaa !23
  %64 = getelementptr i32, ptr %63, i64 1
  %65 = load i32, ptr %64, align 4, !tbaa !7
  %66 = load ptr, ptr %11, align 8, !tbaa !23
  %67 = getelementptr i32, ptr %66, i64 0
  %68 = load i32, ptr %67, align 4, !tbaa !7
  %69 = call <2 x i64> @_mm_set_epi32(i32 noundef %59, i32 noundef %62, i32 noundef %65, i32 noundef %68)
  %70 = load ptr, ptr %7, align 8, !tbaa !3
  %71 = getelementptr <2 x i64>, ptr %70, i64 0
  store <2 x i64> %69, ptr %71, align 16, !tbaa !22
  %72 = load ptr, ptr %12, align 8, !tbaa !23
  %73 = getelementptr i32, ptr %72, i64 3
  %74 = load i32, ptr %73, align 4, !tbaa !7
  %75 = load ptr, ptr %12, align 8, !tbaa !23
  %76 = getelementptr i32, ptr %75, i64 2
  %77 = load i32, ptr %76, align 4, !tbaa !7
  %78 = load ptr, ptr %12, align 8, !tbaa !23
  %79 = getelementptr i32, ptr %78, i64 1
  %80 = load i32, ptr %79, align 4, !tbaa !7
  %81 = load ptr, ptr %12, align 8, !tbaa !23
  %82 = getelementptr i32, ptr %81, i64 0
  %83 = load i32, ptr %82, align 4, !tbaa !7
  %84 = call <2 x i64> @_mm_set_epi32(i32 noundef %74, i32 noundef %77, i32 noundef %80, i32 noundef %83)
  %85 = load ptr, ptr %8, align 8, !tbaa !3
  %86 = getelementptr <2 x i64>, ptr %85, i64 0
  store <2 x i64> %84, ptr %86, align 16, !tbaa !22
  call void @llvm.lifetime.end.p0(i64 8, ptr %12) #14
  call void @llvm.lifetime.end.p0(i64 8, ptr %11) #14
  call void @llvm.lifetime.end.p0(i64 8, ptr %10) #14
  call void @llvm.lifetime.end.p0(i64 8, ptr %9) #14
  call void @llvm.lifetime.end.p0(i64 8, ptr %8) #14
  call void @llvm.lifetime.end.p0(i64 8, ptr %7) #14
  call void @llvm.lifetime.end.p0(i64 8, ptr %6) #14
  call void @llvm.lifetime.end.p0(i64 8, ptr %5) #14
  ret void
}