; Function Attrs: mustprogress nofree norecurse nosync nounwind willreturn memory(argmem: readwrite) uwtable
define hidden void @python_hashlib_Hacl_Hash_Blake2s_Simd128_load_state128s_from_state32(ptr noundef writeonly captures(none) initializes((0, 64)) %0, ptr noundef readonly captures(none) %1) local_unnamed_addr #9 {
  %3 = getelementptr i8, ptr %0, i64 16
  %4 = getelementptr i8, ptr %0, i64 32
  %5 = getelementptr i8, ptr %0, i64 48
  %6 = getelementptr i8, ptr %1, i64 16
  %7 = getelementptr i8, ptr %1, i64 32
  %8 = getelementptr i8, ptr %1, i64 48
  %9 = getelementptr i8, ptr %1, i64 12
  %10 = load i32, ptr %9, align 4, !tbaa !8
  %11 = getelementptr i8, ptr %1, i64 8
  %12 = load i32, ptr %11, align 4, !tbaa !8
  %13 = getelementptr i8, ptr %1, i64 4
  %14 = load i32, ptr %13, align 4, !tbaa !8
  %15 = load i32, ptr %1, align 4, !tbaa !8
  %16 = insertelement <4 x i32> poison, i32 %15, i64 0
  %17 = insertelement <4 x i32> %16, i32 %14, i64 1
  %18 = insertelement <4 x i32> %17, i32 %12, i64 2
  %19 = insertelement <4 x i32> %18, i32 %10, i64 3
  store <4 x i32> %19, ptr %0, align 16, !tbaa !3
  %20 = getelementptr i8, ptr %1, i64 28
  %21 = load i32, ptr %20, align 4, !tbaa !8
  %22 = getelementptr i8, ptr %1, i64 24
  %23 = load i32, ptr %22, align 4, !tbaa !8
  %24 = getelementptr i8, ptr %1, i64 20
  %25 = load i32, ptr %24, align 4, !tbaa !8
  %26 = load i32, ptr %6, align 4, !tbaa !8
  %27 = insertelement <4 x i32> poison, i32 %26, i64 0
  %28 = insertelement <4 x i32> %27, i32 %25, i64 1
  %29 = insertelement <4 x i32> %28, i32 %23, i64 2
  %30 = insertelement <4 x i32> %29, i32 %21, i64 3
  store <4 x i32> %30, ptr %3, align 16, !tbaa !3
  %31 = getelementptr i8, ptr %1, i64 44
  %32 = load i32, ptr %31, align 4, !tbaa !8
  %33 = getelementptr i8, ptr %1, i64 40
  %34 = load i32, ptr %33, align 4, !tbaa !8
  %35 = getelementptr i8, ptr %1, i64 36
  %36 = load i32, ptr %35, align 4, !tbaa !8
  %37 = load i32, ptr %7, align 4, !tbaa !8
  %38 = insertelement <4 x i32> poison, i32 %37, i64 0
  %39 = insertelement <4 x i32> %38, i32 %36, i64 1
  %40 = insertelement <4 x i32> %39, i32 %34, i64 2
  %41 = insertelement <4 x i32> %40, i32 %32, i64 3
  store <4 x i32> %41, ptr %4, align 16, !tbaa !3
  %42 = getelementptr i8, ptr %1, i64 60
  %43 = load i32, ptr %42, align 4, !tbaa !8
  %44 = getelementptr i8, ptr %1, i64 56
  %45 = load i32, ptr %44, align 4, !tbaa !8
  %46 = getelementptr i8, ptr %1, i64 52
  %47 = load i32, ptr %46, align 4, !tbaa !8
  %48 = load i32, ptr %8, align 4, !tbaa !8
  %49 = insertelement <4 x i32> poison, i32 %48, i64 0
  %50 = insertelement <4 x i32> %49, i32 %47, i64 1
  %51 = insertelement <4 x i32> %50, i32 %45, i64 2
  %52 = insertelement <4 x i32> %51, i32 %43, i64 3
  store <4 x i32> %52, ptr %5, align 16, !tbaa !3
  ret void
}